target datalayout = "e-m:e-p270:32:32-p271:32:32-p272:64:64-i64:64-i128:128-f80:128-n8:16:32:64-S128"
target triple = "x86_64-pc-linux-gnu"

%union.pthread_mutex_t = type { %struct.__pthread_mutex_s }
%struct.__pthread_mutex_s = type { i32, i32, i32, i32, i32, i16, i16, %struct.__pthread_internal_list }
%struct.__pthread_internal_list = type { ptr, ptr }
%struct.wolfSSL_RefWithMutex = type { %union.pthread_mutex_t, i32 }
%struct.WOLFSSL_CTX = type <{ ptr, %struct.wolfSSL_RefWithMutex, i32, [4 x i8], %struct.WOLFSSL_BUFFER_INFO, %struct.WOLFSSL_BUFFER_INFO, ptr, ptr, i32, [4 x i8], ptr, i8, i8, [2 x i8], i32, i32, [4 x i8], ptr, ptr, ptr, i8, i16, i8, i8, i8, i16, i16, i16, i16, [2 x i8], i64, ptr, ptr, ptr, ptr, i32, i32, i16, [2 x i8], i32, [10 x i16], i8, [3 x i8], ptr, ptr, i32, [4 x i8], ptr, i8, [7 x i8] }>
%struct.WOLFSSL_BUFFER_INFO = type { ptr, i32 }
%struct.WOLFSSL = type <{ ptr, ptr, ptr, ptr, [48 x i8], [48 x i8], ptr, ptr, ptr, ptr, ptr, ptr, ptr, ptr, ptr, ptr, ptr, ptr, ptr, i32, [4 x i8], %struct.WOLFSSL_CIPHER, ptr, %struct.Ciphers, %struct.Ciphers, [8 x i8], %struct.Buffers, ptr, ptr, %struct.WOLFSSL_ALERT_HISTORY, %struct.WOLFSSL_ALERT, i32, i32, i32, i32, i32, i32, i32, i16, [2 x i8], i32, i8, %struct.RecordLayerHeader, %struct.MsgsReceived, %struct.ProtocolVersion, %struct.ProtocolVersion, %struct.CipherSpecs, [2 x i8], %struct.Keys, %struct.Options, ptr, i8, i8, i16, [10 x i16], i8, i8, i16, i16, [38 x i8], i32, i32, [4 x i8], ptr, i8, i8, [6 x i8], ptr, ptr, i16, i8, i8, i32, i8, [3 x i8], i32, %struct.OneTimeAuth, ptr }>
%struct.WOLFSSL_CIPHER = type { i8, i8, ptr }
%struct.Ciphers = type { ptr, ptr, ptr, ptr, i8, i8 }
%struct.Buffers = type { %struct.bufferStatic, %struct.bufferStatic, %struct.WOLFSSL_BUFFER_INFO, %struct.WOLFSSL_BUFFER_INFO, %struct.WOLFSSL_BUFFER_INFO, %struct.WOLFSSL_BUFFER_INFO, i32, i32, i8, i8, i8, i8, %struct.WOLFSSL_BUFFER_INFO, %struct.WOLFSSL_BUFFER_INFO, %struct.WOLFSSL_BUFFER_INFO, %struct.WOLFSSL_BUFFER_INFO, ptr, ptr, ptr, i8, i8, i32, i32, ptr, i32, [1 x ptr] }
%struct.bufferStatic = type { [5 x i8], ptr, i32, i32, i32, i8, i8 }
%struct.WOLFSSL_ALERT_HISTORY = type { %struct.WOLFSSL_ALERT, %struct.WOLFSSL_ALERT }
%struct.WOLFSSL_ALERT = type { i32, i32 }
%struct.RecordLayerHeader = type { i8, i8, i8, [2 x i8] }
%struct.MsgsReceived = type { i32 }
%struct.ProtocolVersion = type { i8, i8 }
%struct.CipherSpecs = type { i16, i16, i16, i16, i8, i8, i8, i8, i8, i8, i8, i8 }
%struct.Keys = type { [64 x i8], [64 x i8], [32 x i8], [32 x i8], [16 x i8], [16 x i8], [8 x i8], [12 x i8], [12 x i8], i32, i32, i32, i32, i32, i32, i8, i8, i8, i8 }
%struct.Options = type { i64, i64, i8, i8, i8, i8, i8, i8, i8, i8, i8, i8, i8, i8, i8, i8, i8, i8, i8, i8, i8, i8, i8, i16, i16, i16, i16, i16, i8 }
%struct.OneTimeAuth = type { ptr, i8 }
%struct.StaticBuffer = type { ptr, i32, i32 }

; Function Attrs: nounwind uwtable
define internal void @static_buffer_free(ptr noundef %0, ptr noundef %1, i32 noundef %2) #0 {
  %4 = alloca ptr, align 8
  %5 = alloca ptr, align 8
  %6 = alloca i32, align 4
  %7 = alloca ptr, align 8
  store ptr %0, ptr %4, align 8, !tbaa !3
  store ptr %1, ptr %5, align 8, !tbaa !3
  store i32 %2, ptr %6, align 4, !tbaa !7
  %8 = load ptr, ptr %4, align 8, !tbaa !3
  %9 = getelementptr inbounds nuw %struct.StaticBuffer, ptr %8, i32 0, i32 2
  %10 = load i32, ptr %9, align 4, !tbaa !232
  %11 = icmp ne i32 %10, 0
  br i1 %11, label %12, label %23

12:                                               ; preds = %3
  br label %13

13:                                               ; preds = %12
  call void @llvm.lifetime.start.p0(i64 8, ptr %7) #9
  %14 = load ptr, ptr %4, align 8, !tbaa !3
  %15 = getelementptr inbounds nuw %struct.StaticBuffer, ptr %14, i32 0, i32 0
  %16 = load ptr, ptr %15, align 8, !tbaa !225
  store ptr %16, ptr %7, align 8, !tbaa !3
  %17 = load ptr, ptr %7, align 8, !tbaa !3
  %18 = icmp ne ptr %17, null
  br i1 %18, label %19, label %21

19:                                               ; preds = %13
  %20 = load ptr, ptr %7, align 8, !tbaa !3
  call void @wolfSSL_Free(ptr noundef %20)
  br label %21

21:                                               ; preds = %19, %13
  call void @llvm.lifetime.end.p0(i64 8, ptr %7) #9
  br label %22

22:                                               ; preds = %21
  br label %23

23:                                               ; preds = %22, %3
  ret void
}

; Function Attrs: nounwind uwtable
define internal i32 @ProcessChainBuffer(ptr noundef %0, ptr noundef %1, ptr noundef %2, i64 noundef %3, i32 noundef %4, i32 noundef %5) #0 {
  %7 = alloca ptr, align 8
  %8 = alloca ptr, align 8
  %9 = alloca ptr, align 8
  %10 = alloca i64, align 8
  %11 = alloca i32, align 4
  %12 = alloca i32, align 4
  %13 = alloca i32, align 4
  %14 = alloca i64, align 8
  %15 = alloca i32, align 4
  %16 = alloca i64, align 8
  store ptr %0, ptr %7, align 8, !tbaa !24
  store ptr %1, ptr %8, align 8, !tbaa !61
  store ptr %2, ptr %9, align 8, !tbaa !21
  store i64 %3, ptr %10, align 8, !tbaa !22
  store i32 %4, ptr %11, align 4, !tbaa !7
  store i32 %5, ptr %12, align 4, !tbaa !7
  call void @llvm.lifetime.start.p0(i64 4, ptr %13) #9
  store i32 0, ptr %13, align 4, !tbaa !7
  call void @llvm.lifetime.start.p0(i64 8, ptr %14) #9
  store i64 0, ptr %14, align 8, !tbaa !22
  call void @llvm.lifetime.start.p0(i64 4, ptr %15) #9
  store i32 0, ptr %15, align 4, !tbaa !7
  br label %17

17:                                               ; preds = %6
  br label %18

18:                                               ; preds = %17
  br label %19

19:                                               ; preds = %18
  br label %20

20:                                               ; preds = %77, %19
  %21 = load i32, ptr %13, align 4, !tbaa !7
  %22 = icmp sge i32 %21, 0
  br i1 %22, label %23, label %27

23:                                               ; preds = %20
  %24 = load i64, ptr %14, align 8, !tbaa !22
  %25 = load i64, ptr %10, align 8, !tbaa !22
  %26 = icmp slt i64 %24, %25
  br label %27

27:                                               ; preds = %23, %20
  %28 = phi i1 [ false, %20 ], [ %26, %23 ]
  br i1 %28, label %29, label %81

29:                                               ; preds = %27
  call void @llvm.lifetime.start.p0(i64 8, ptr %16) #9
  store i64 0, ptr %16, align 8, !tbaa !22
  %30 = load ptr, ptr %7, align 8, !tbaa !24
  %31 = load ptr, ptr %9, align 8, !tbaa !21
  %32 = load i64, ptr %14, align 8, !tbaa !22
  %33 = getelementptr inbounds i8, ptr %31, i64 %32
  %34 = load i64, ptr %10, align 8, !tbaa !22
  %35 = load i64, ptr %14, align 8, !tbaa !22
  %36 = sub nsw i64 %34, %35
  %37 = load i32, ptr %11, align 4, !tbaa !7
  %38 = load ptr, ptr %8, align 8, !tbaa !61
  %39 = load i32, ptr %12, align 4, !tbaa !7
  %40 = call i32 @ProcessBuffer(ptr noundef %30, ptr noundef %33, i64 noundef %36, i32 noundef 1, i32 noundef %37, ptr noundef %38, ptr noundef %16, i32 noundef 0, i32 noundef %39)
  store i32 %40, ptr %13, align 4, !tbaa !7
  %41 = load i32, ptr %13, align 4, !tbaa !7
  %42 = icmp eq i32 %41, -125
  br i1 %42, label %43, label %44

43:                                               ; preds = %29
  store i32 0, ptr %15, align 4, !tbaa !7
  br label %77

44:                                               ; preds = %29
  %45 = load i32, ptr %13, align 4, !tbaa !7
  %46 = icmp slt i32 %45, 0
  br i1 %46, label %47, label %72

47:                                               ; preds = %44
  %48 = load i64, ptr %16, align 8, !tbaa !22
  %49 = icmp sgt i64 %48, 0
  br i1 %49, label %50, label %64

50:                                               ; preds = %47
  br label %51

51:                                               ; preds = %50
  br label %52

52:                                               ; preds = %51
  br label %53

53:                                               ; preds = %52
  br label %54

54:                                               ; preds = %53
  br label %55

55:                                               ; preds = %54
  br label %56

56:                                               ; preds = %55
  %57 = load i64, ptr %14, align 8, !tbaa !22
  %58 = load i64, ptr %16, align 8, !tbaa !22
  %59 = add nsw i64 %57, %58
  %60 = load i64, ptr %10, align 8, !tbaa !22
  %61 = icmp slt i64 %59, %60
  br i1 %61, label %62, label %63

62:                                               ; preds = %56
  store i32 0, ptr %13, align 4, !tbaa !7
  br label %63

63:                                               ; preds = %62, %56
  br label %71

64:                                               ; preds = %47
  br label %65

65:                                               ; preds = %64
  br label %66

66:                                               ; preds = %65
  br label %67

67:                                               ; preds = %66
  br label %68

68:                                               ; preds = %67
  br label %69

69:                                               ; preds = %68
  br label %70

70:                                               ; preds = %69
  br label %71

71:                                               ; preds = %70, %63
  br label %76

72:                                               ; preds = %44
  br label %73

73:                                               ; preds = %72
  br label %74

74:                                               ; preds = %73
  br label %75

75:                                               ; preds = %74
  store i32 1, ptr %15, align 4, !tbaa !7
  br label %76

76:                                               ; preds = %75, %71
  br label %77

77:                                               ; preds = %76, %43
  %78 = load i64, ptr %16, align 8, !tbaa !22
  %79 = load i64, ptr %14, align 8, !tbaa !22
  %80 = add nsw i64 %79, %78
  store i64 %80, ptr %14, align 8, !tbaa !22
  call void @llvm.lifetime.end.p0(i64 8, ptr %16) #9
  br label %20, !llvm.loop !233

81:                                               ; preds = %27
  %82 = load i32, ptr %15, align 4, !tbaa !7
  %83 = icmp ne i32 %82, 0
  br i1 %83, label %84, label %88

84:                                               ; preds = %81
  br label %85

85:                                               ; preds = %84
  br label %86

86:                                               ; preds = %85
  br label %87

87:                                               ; preds = %86
  store i32 1, ptr %13, align 4, !tbaa !7
  br label %88

88:                                               ; preds = %87, %81
  %89 = load i32, ptr %13, align 4, !tbaa !7
  call void @llvm.lifetime.end.p0(i64 4, ptr %15) #9
  call void @llvm.lifetime.end.p0(i64 8, ptr %14) #9
  call void @llvm.lifetime.end.p0(i64 4, ptr %13) #9
  ret i32 %89
}

; Function Attrs: nounwind uwtable
define internal void @static_buffer_init(ptr noundef %0, ptr noundef %1, i32 noundef %2) #0 {
  %4 = alloca ptr, align 8
  %5 = alloca ptr, align 8
  %6 = alloca i32, align 4
  store ptr %0, ptr %4, align 8, !tbaa !3
  store ptr %1, ptr %5, align 8, !tbaa !21
  store i32 %2, ptr %6, align 4, !tbaa !7
  %7 = load ptr, ptr %5, align 8, !tbaa !21
  %8 = load ptr, ptr %4, align 8, !tbaa !3
  %9 = getelementptr inbounds nuw %struct.StaticBuffer, ptr %8, i32 0, i32 0
  store ptr %7, ptr %9, align 8, !tbaa !225
  %10 = load i32, ptr %6, align 4, !tbaa !7
  %11 = load ptr, ptr %4, align 8, !tbaa !3
  %12 = getelementptr inbounds nuw %struct.StaticBuffer, ptr %11, i32 0, i32 1
  store i32 %10, ptr %12, align 8, !tbaa !231
  %13 = load ptr, ptr %4, align 8, !tbaa !3
  %14 = getelementptr inbounds nuw %struct.StaticBuffer, ptr %13, i32 0, i32 2
  store i32 0, ptr %14, align 4, !tbaa !232
  ret void
}

; Function Attrs: nounwind uwtable
define i32 @ProcessFile(ptr noundef %0, ptr noundef %1, i32 noundef %2, i32 noundef %3, ptr noundef %4, i32 noundef %5, ptr noundef %6, i32 noundef %7) #0 {
  %9 = alloca ptr, align 8
  %10 = alloca ptr, align 8
  %11 = alloca i32, align 4
  %12 = alloca i32, align 4
  %13 = alloca ptr, align 8
  %14 = alloca i32, align 4
  %15 = alloca ptr, align 8
  %16 = alloca i32, align 4
  %17 = alloca i32, align 4
  %18 = alloca [1024 x i8], align 16
  %19 = alloca %struct.StaticBuffer, align 8
  %20 = alloca i64, align 8
  %21 = alloca ptr, align 8
  %22 = alloca ptr, align 8
  %23 = alloca ptr, align 8
  store ptr %0, ptr %9, align 8, !tbaa !24
  store ptr %1, ptr %10, align 8, !tbaa !21
  store i32 %2, ptr %11, align 4, !tbaa !7
  store i32 %3, ptr %12, align 4, !tbaa !7
  store ptr %4, ptr %13, align 8, !tbaa !61
  store i32 %5, ptr %14, align 4, !tbaa !7
  store ptr %6, ptr %15, align 8, !tbaa !230
  store i32 %7, ptr %16, align 4, !tbaa !7
  call void @llvm.lifetime.start.p0(i64 4, ptr %17) #9
  store i32 0, ptr %17, align 4, !tbaa !7
  call void @llvm.lifetime.start.p0(i64 1024, ptr %18) #9
  call void @llvm.lifetime.start.p0(i64 16, ptr %19) #9
  call void @llvm.lifetime.start.p0(i64 8, ptr %20) #9
  store i64 0, ptr %20, align 8, !tbaa !22
  call void @llvm.lifetime.start.p0(i64 8, ptr %21) #9
  %24 = load ptr, ptr %9, align 8, !tbaa !24
  %25 = icmp ne ptr %24, null
  br i1 %25, label %26, label %30

26:                                               ; preds = %8
  %27 = load ptr, ptr %9, align 8, !tbaa !24
  %28 = getelementptr inbounds nuw %struct.WOLFSSL_CTX, ptr %27, i32 0, i32 19
  %29 = load ptr, ptr %28, align 8, !tbaa !136
  br label %40

30:                                               ; preds = %8
  %31 = load ptr, ptr %13, align 8, !tbaa !61
  %32 = icmp ne ptr %31, null
  br i1 %32, label %33, label %37

33:                                               ; preds = %30
  %34 = load ptr, ptr %13, align 8, !tbaa !61
  %35 = getelementptr inbounds nuw %struct.WOLFSSL, ptr %34, i32 0, i32 12
  %36 = load ptr, ptr %35, align 16, !tbaa !186
  br label %38

37:                                               ; preds = %30
  br label %38

38:                                               ; preds = %37, %33
  %39 = phi ptr [ %36, %33 ], [ null, %37 ]
  br label %40

40:                                               ; preds = %38, %26
  %41 = phi ptr [ %29, %26 ], [ %39, %38 ]
  store ptr %41, ptr %21, align 8, !tbaa !3
  %42 = getelementptr inbounds [1024 x i8], ptr %18, i64 0, i64 0
  call void @static_buffer_init(ptr noundef %19, ptr noundef %42, i32 noundef 1024)
  %43 = load ptr, ptr %10, align 8, !tbaa !21
  %44 = load ptr, ptr %21, align 8, !tbaa !3
  %45 = call i32 @wolfssl_read_file_static(ptr noundef %43, ptr noundef %19, ptr noundef %44, i32 noundef 4, ptr noundef %20)
  store i32 %45, ptr %17, align 4, !tbaa !7
  %46 = load i32, ptr %17, align 4, !tbaa !7
  %47 = icmp eq i32 %46, 0
  br i1 %47, label %48, label %58

48:                                               ; preds = %40
  %49 = load i32, ptr %12, align 4, !tbaa !7
  %50 = icmp eq i32 %49, 24
  br i1 %50, label %51, label %58

51:                                               ; preds = %48
  %52 = load i32, ptr %11, align 4, !tbaa !7
  %53 = icmp ne i32 %52, 1
  br i1 %53, label %54, label %58

54:                                               ; preds = %51
  br label %55

55:                                               ; preds = %54
  br label %56

56:                                               ; preds = %55
  br label %57

57:                                               ; preds = %56
  store i32 -459, ptr %17, align 4, !tbaa !7
  br label %58

58:                                               ; preds = %57, %51, %48, %40
  %59 = load i32, ptr %17, align 4, !tbaa !7
  %60 = icmp eq i32 %59, 0
  br i1 %60, label %61, label %94

61:                                               ; preds = %58
  %62 = load i32, ptr %12, align 4, !tbaa !7
  %63 = icmp eq i32 %62, 24
  br i1 %63, label %64, label %94

64:                                               ; preds = %61
  call void @llvm.lifetime.start.p0(i64 8, ptr %22) #9
  store ptr null, ptr %22, align 8, !tbaa !21
  call void @llvm.lifetime.start.p0(i64 8, ptr %23) #9
  store ptr null, ptr %23, align 8, !tbaa !21
  %65 = call i32 @wc_PemGetHeaderFooter(i32 noundef 6, ptr noundef %22, ptr noundef %23)
  %66 = icmp eq i32 %65, 0
  br i1 %66, label %67, label %76

67:                                               ; preds = %64
  %68 = getelementptr inbounds nuw %struct.StaticBuffer, ptr %19, i32 0, i32 0
  %69 = load ptr, ptr %68, align 8, !tbaa !225
  %70 = load ptr, ptr %22, align 8, !tbaa !21
  %71 = load i64, ptr %20, align 8, !tbaa !22
  %72 = trunc i64 %71 to i32
  %73 = call ptr @mystrnstr(ptr noundef %69, ptr noundef %70, i32 noundef %72)
  %74 = icmp ne ptr %73, null
  br i1 %74, label %75, label %76

75:                                               ; preds = %67
  store i32 6, ptr %12, align 4, !tbaa !7
  br label %93

76:                                               ; preds = %67, %64
  %77 = call i32 @wc_PemGetHeaderFooter(i32 noundef 0, ptr noundef %22, ptr noundef %23)
  %78 = icmp eq i32 %77, 0
  br i1 %78, label %79, label %88

79:                                               ; preds = %76
  %80 = getelementptr inbounds nuw %struct.StaticBuffer, ptr %19, i32 0, i32 0
  %81 = load ptr, ptr %80, align 8, !tbaa !225
  %82 = load ptr, ptr %22, align 8, !tbaa !21
  %83 = load i64, ptr %20, align 8, !tbaa !22
  %84 = trunc i64 %83 to i32
  %85 = call ptr @mystrnstr(ptr noundef %81, ptr noundef %82, i32 noundef %84)
  %86 = icmp ne ptr %85, null
  br i1 %86, label %87, label %88

87:                                               ; preds = %79
  store i32 0, ptr %12, align 4, !tbaa !7
  br label %92

88:                                               ; preds = %79, %76
  br label %89

89:                                               ; preds = %88
  br label %90

90:                                               ; preds = %89
  br label %91

91:                                               ; preds = %90
  store i32 -459, ptr %17, align 4, !tbaa !7
  br label %92

92:                                               ; preds = %91, %87
  br label %93

93:                                               ; preds = %92, %75
  call void @llvm.lifetime.end.p0(i64 8, ptr %23) #9
  call void @llvm.lifetime.end.p0(i64 8, ptr %22) #9
  br label %94

94:                                               ; preds = %93, %61, %58
  %95 = load i32, ptr %17, align 4, !tbaa !7
  %96 = icmp eq i32 %95, 0
  br i1 %96, label %97, label %127

97:                                               ; preds = %94
  %98 = load i32, ptr %12, align 4, !tbaa !7
  %99 = icmp eq i32 %98, 6
  br i1 %99, label %103, label %100

100:                                              ; preds = %97
  %101 = load i32, ptr %12, align 4, !tbaa !7
  %102 = icmp eq i32 %101, 17
  br i1 %102, label %103, label %115

103:                                              ; preds = %100, %97
  %104 = load i32, ptr %11, align 4, !tbaa !7
  %105 = icmp eq i32 %104, 1
  br i1 %105, label %106, label %115

106:                                              ; preds = %103
  %107 = load ptr, ptr %9, align 8, !tbaa !24
  %108 = load ptr, ptr %13, align 8, !tbaa !61
  %109 = getelementptr inbounds nuw %struct.StaticBuffer, ptr %19, i32 0, i32 0
  %110 = load ptr, ptr %109, align 8, !tbaa !225
  %111 = load i64, ptr %20, align 8, !tbaa !22
  %112 = load i32, ptr %12, align 4, !tbaa !7
  %113 = load i32, ptr %16, align 4, !tbaa !7
  %114 = call i32 @ProcessChainBuffer(ptr noundef %107, ptr noundef %108, ptr noundef %110, i64 noundef %111, i32 noundef %112, i32 noundef %113)
  store i32 %114, ptr %17, align 4, !tbaa !7
  br label %126

115:                                              ; preds = %103, %100
  %116 = load ptr, ptr %9, align 8, !tbaa !24
  %117 = getelementptr inbounds nuw %struct.StaticBuffer, ptr %19, i32 0, i32 0
  %118 = load ptr, ptr %117, align 8, !tbaa !225
  %119 = load i64, ptr %20, align 8, !tbaa !22
  %120 = load i32, ptr %11, align 4, !tbaa !7
  %121 = load i32, ptr %12, align 4, !tbaa !7
  %122 = load ptr, ptr %13, align 8, !tbaa !61
  %123 = load i32, ptr %14, align 4, !tbaa !7
  %124 = load i32, ptr %16, align 4, !tbaa !7
  %125 = call i32 @ProcessBuffer(ptr noundef %116, ptr noundef %118, i64 noundef %119, i32 noundef %120, i32 noundef %121, ptr noundef %122, ptr noundef null, i32 noundef %123, i32 noundef %124)
  store i32 %125, ptr %17, align 4, !tbaa !7
  br label %126

126:                                              ; preds = %115, %106
  br label %127

127:                                              ; preds = %126, %94
  %128 = load ptr, ptr %21, align 8, !tbaa !3
  call void @static_buffer_free(ptr noundef %19, ptr noundef %128, i32 noundef 4)
  %129 = load i32, ptr %17, align 4, !tbaa !7
  call void @llvm.lifetime.end.p0(i64 8, ptr %21) #9
  call void @llvm.lifetime.end.p0(i64 8, ptr %20) #9
  call void @llvm.lifetime.end.p0(i64 16, ptr %19) #9
  call void @llvm.lifetime.end.p0(i64 1024, ptr %18) #9
  call void @llvm.lifetime.end.p0(i64 4, ptr %17) #9
  ret i32 %129
}

; Function Attrs: nounwind uwtable
define i32 @wolfSSL_use_certificate_file(ptr noundef %0, ptr noundef %1, i32 noundef %2) #0 {
  %4 = alloca ptr, align 8
  %5 = alloca ptr, align 8
  %6 = alloca i32, align 4
  %7 = alloca i32, align 4
  store ptr %0, ptr %4, align 8, !tbaa !61
  store ptr %1, ptr %5, align 8, !tbaa !21
  store i32 %2, ptr %6, align 4, !tbaa !7
  call void @llvm.lifetime.start.p0(i64 4, ptr %7) #9
  br label %8

8:                                                ; preds = %3
  br label %9

9:                                                ; preds = %8
  br label %10

10:                                               ; preds = %9
  %11 = load ptr, ptr %4, align 8, !tbaa !61
  %12 = icmp eq ptr %11, null
  br i1 %12, label %13, label %14

13:                                               ; preds = %10
  store i32 -173, ptr %7, align 4, !tbaa !7
  br label %35

14:                                               ; preds = %10
  %15 = load ptr, ptr %4, align 8, !tbaa !61
  %16 = getelementptr inbounds nuw %struct.WOLFSSL, ptr %15, i32 0, i32 0
  %17 = load ptr, ptr %16, align 16, !tbaa !90
  %18 = load ptr, ptr %5, align 8, !tbaa !21
  %19 = load i32, ptr %6, align 4, !tbaa !7
  %20 = load ptr, ptr %4, align 8, !tbaa !61
  %21 = load ptr, ptr %4, align 8, !tbaa !61
  %22 = getelementptr inbounds nuw %struct.WOLFSSL, ptr %21, i32 0, i32 49
  %23 = getelementptr inbounds nuw %struct.Options, ptr %22, i32 0, i32 1
  %24 = load i64, ptr %23, align 8
  %25 = lshr i64 %24, 7
  %26 = and i64 %25, 1
  %27 = trunc i64 %26 to i16
  %28 = zext i16 %27 to i32
  %29 = icmp ne i32 %28, 0
  %30 = select i1 %29, i32 0, i32 1
  %31 = call i32 @ProcessFile(ptr noundef %17, ptr noundef %18, i32 noundef %19, i32 noundef 0, ptr noundef %20, i32 noundef 0, ptr noundef null, i32 noundef %30)
  store i32 %31, ptr %7, align 4, !tbaa !7
  %32 = load i32, ptr %7, align 4, !tbaa !7
  %33 = icmp eq i32 %32, 1
  %34 = select i1 %33, i32 1, i32 0
  store i32 %34, ptr %7, align 4, !tbaa !7
  br label %35

35:                                               ; preds = %14, %13
  %36 = load i32, ptr %7, align 4, !tbaa !7
  call void @llvm.lifetime.end.p0(i64 4, ptr %7) #9
  ret i32 %36
}